; Function Attrs: nounwind uwtable
define hidden i64 @SDL_SeekIO_REAL(ptr noundef readonly captures(address_is_null) %0, i64 noundef %1, i32 noundef %2) local_unnamed_addr #0 {
  %.not = icmp eq ptr %0, null
  br i1 %.not, label %4, label %6

4:                                                ; preds = %3
  %5 = tail call zeroext i1 (ptr, ...) @SDL_SetError_REAL(ptr noundef nonnull @.str.2, ptr noundef nonnull @.str.11) #18
  br label %15

6:                                                ; preds = %3
  %7 = getelementptr inbounds nuw i8, ptr %0, i64 16
  %8 = load ptr, ptr %7, align 8
  %.not8 = icmp eq ptr %8, null
  br i1 %.not8, label %9, label %11

9:                                                ; preds = %6
  %10 = tail call zeroext i1 (ptr, ...) @SDL_SetError_REAL(ptr noundef nonnull @.str.18) #18
  br label %15

11:                                               ; preds = %6
  %12 = getelementptr inbounds nuw i8, ptr %0, i64 56
  %13 = load ptr, ptr %12, align 8
  %14 = tail call i64 %8(ptr noundef %13, i64 noundef %1, i32 noundef %2) #18
  br label %15

15:                                               ; preds = %11, %9, %4
  %.0 = phi i64 [ %14, %11 ], [ -1, %9 ], [ -1, %4 ]
  ret i64 %.0
}